; ModuleID = '32/1799.c'
source_filename = "32/1799.c"
target datalayout = "e-m:e-p270:32:32-p271:32:32-p272:64:64-i64:64-f80:128-n8:16:32:64-S128"
target triple = "x86_64-pc-linux-gnu"

@.str = private unnamed_addr constant [3 x i8] c"%d\00", align 1
@.str.1 = private unnamed_addr constant [6 x i8] c"%s\0A%s\00", align 1
@.str.2 = private unnamed_addr constant [2 x i8] c"\0A\00", align 1

; Function Attrs: noinline nounwind uwtable
define dso_local void @main() #0 {
  %1 = alloca i32, align 4
  %2 = alloca i32, align 4
  %3 = alloca i32, align 4
  %4 = alloca i32, align 4
  %5 = alloca i32, align 4
  %6 = alloca i32, align 4
  %7 = alloca i32, align 4
  %8 = alloca i32, align 4
  %9 = alloca [100 x i8], align 16
  %10 = alloca [100 x i8], align 16
  %11 = call i32 (i8*, ...) @__isoc99_scanf(i8* getelementptr inbounds ([3 x i8], [3 x i8]* @.str, i64 0, i64 0), i32* %1)
  store i32 0, i32* %2, align 4
  br label %12

12:                                               ; preds = %187, %0
  %13 = load i32, i32* %2, align 4
  %14 = load i32, i32* %1, align 4
  %15 = icmp slt i32 %13, %14
  br i1 %15, label %16, label %190

16:                                               ; preds = %12
  %17 = getelementptr inbounds [100 x i8], [100 x i8]* %9, i64 0, i64 0
  %18 = getelementptr inbounds [100 x i8], [100 x i8]* %10, i64 0, i64 0
  %19 = call i32 (i8*, ...) @__isoc99_scanf(i8* getelementptr inbounds ([6 x i8], [6 x i8]* @.str.1, i64 0, i64 0), i8* %17, i8* %18)
  %20 = getelementptr inbounds [100 x i8], [100 x i8]* %9, i64 0, i64 0
  %21 = call i64 @strlen(i8* %20) #3
  %22 = trunc i64 %21 to i32
  store i32 %22, i32* %3, align 4
  %23 = getelementptr inbounds [100 x i8], [100 x i8]* %10, i64 0, i64 0
  %24 = call i64 @strlen(i8* %23) #3
  %25 = trunc i64 %24 to i32
  store i32 %25, i32* %4, align 4
  %26 = load i32, i32* %3, align 4
  %27 = sub nsw i32 %26, 1
  store i32 %27, i32* %5, align 4
  %28 = load i32, i32* %4, align 4
  %29 = sub nsw i32 %28, 1
  store i32 %29, i32* %6, align 4
  br label %30

30:                                               ; preds = %144, %16
  %31 = load i32, i32* %5, align 4
  %32 = icmp sge i32 %31, 0
  br i1 %32, label %33, label %149

33:                                               ; preds = %30
  %34 = load i32, i32* %6, align 4
  %35 = icmp sge i32 %34, 0
  br i1 %35, label %36, label %105

36:                                               ; preds = %33
  %37 = getelementptr inbounds [100 x i8], [100 x i8]* %9, i64 0, i64 0
  %38 = load i32, i32* %5, align 4
  %39 = sext i32 %38 to i64
  %40 = getelementptr inbounds i8, i8* %37, i64 %39
  %41 = load i8, i8* %40, align 1
  %42 = sext i8 %41 to i32
  %43 = getelementptr inbounds [100 x i8], [100 x i8]* %10, i64 0, i64 0
  %44 = load i32, i32* %6, align 4
  %45 = sext i32 %44 to i64
  %46 = getelementptr inbounds i8, i8* %43, i64 %45
  %47 = load i8, i8* %46, align 1
  %48 = sext i8 %47 to i32
  %49 = icmp sge i32 %42, %48
  br i1 %49, label %50, label %70

50:                                               ; preds = %36
  %51 = getelementptr inbounds [100 x i8], [100 x i8]* %9, i64 0, i64 0
  %52 = load i32, i32* %5, align 4
  %53 = sext i32 %52 to i64
  %54 = getelementptr inbounds i8, i8* %51, i64 %53
  %55 = load i8, i8* %54, align 1
  %56 = sext i8 %55 to i32
  %57 = getelementptr inbounds [100 x i8], [100 x i8]* %10, i64 0, i64 0
  %58 = load i32, i32* %6, align 4
  %59 = sext i32 %58 to i64
  %60 = getelementptr inbounds i8, i8* %57, i64 %59
  %61 = load i8, i8* %60, align 1
  %62 = sext i8 %61 to i32
  %63 = sub nsw i32 %56, %62
  %64 = add nsw i32 %63, 48
  %65 = trunc i32 %64 to i8
  %66 = getelementptr inbounds [100 x i8], [100 x i8]* %9, i64 0, i64 0
  %67 = load i32, i32* %5, align 4
  %68 = sext i32 %67 to i64
  %69 = getelementptr inbounds i8, i8* %66, i64 %68
  store i8 %65, i8* %69, align 1
  br label %104

70:                                               ; preds = %36
  %71 = getelementptr inbounds [100 x i8], [100 x i8]* %9, i64 0, i64 0
  %72 = load i32, i32* %5, align 4
  %73 = sext i32 %72 to i64
  %74 = getelementptr inbounds i8, i8* %71, i64 %73
  %75 = load i8, i8* %74, align 1
  %76 = sext i8 %75 to i32
  %77 = getelementptr inbounds [100 x i8], [100 x i8]* %10, i64 0, i64 0
  %78 = load i32, i32* %6, align 4
  %79 = sext i32 %78 to i64
  %80 = getelementptr inbounds i8, i8* %77, i64 %79
  %81 = load i8, i8* %80, align 1
  %82 = sext i8 %81 to i32
  %83 = sub nsw i32 %76, %82
  %84 = add nsw i32 %83, 58
  %85 = trunc i32 %84 to i8
  %86 = getelementptr inbounds [100 x i8], [100 x i8]* %9, i64 0, i64 0
  %87 = load i32, i32* %5, align 4
  %88 = sext i32 %87 to i64
  %89 = getelementptr inbounds i8, i8* %86, i64 %88
  store i8 %85, i8* %89, align 1
  %90 = getelementptr inbounds [100 x i8], [100 x i8]* %9, i64 0, i64 0
  %91 = load i32, i32* %5, align 4
  %92 = sext i32 %91 to i64
  %93 = getelementptr inbounds i8, i8* %90, i64 %92
  %94 = getelementptr inbounds i8, i8* %93, i64 -1
  %95 = load i8, i8* %94, align 1
  %96 = sext i8 %95 to i32
  %97 = sub nsw i32 %96, 1
  %98 = trunc i32 %97 to i8
  %99 = getelementptr inbounds [100 x i8], [100 x i8]* %9, i64 0, i64 0
  %100 = load i32, i32* %5, align 4
  %101 = sext i32 %100 to i64
  %102 = getelementptr inbounds i8, i8* %99, i64 %101
  %103 = getelementptr inbounds i8, i8* %102, i64 -1
  store i8 %98, i8* %103, align 1
  br label %104

104:                                              ; preds = %70, %50
  br label %143

105:                                              ; preds = %33
  %106 = getelementptr inbounds [100 x i8], [100 x i8]* %9, i64 0, i64 0
  %107 = load i32, i32* %5, align 4
  %108 = sext i32 %107 to i64
  %109 = getelementptr inbounds i8, i8* %106, i64 %108
  %110 = load i8, i8* %109, align 1
  %111 = sext i8 %110 to i32
  %112 = icmp slt i32 %111, 48
  br i1 %112, label %113, label %141

113:                                              ; preds = %105
  %114 = getelementptr inbounds [100 x i8], [100 x i8]* %9, i64 0, i64 0
  %115 = load i32, i32* %5, align 4
  %116 = sext i32 %115 to i64
  %117 = getelementptr inbounds i8, i8* %114, i64 %116
  %118 = load i8, i8* %117, align 1
  %119 = sext i8 %118 to i32
  %120 = add nsw i32 %119, 10
  %121 = add nsw i32 %120, 48
  %122 = trunc i32 %121 to i8
  %123 = getelementptr inbounds [100 x i8], [100 x i8]* %9, i64 0, i64 0
  %124 = load i32, i32* %5, align 4
  %125 = sext i32 %124 to i64
  %126 = getelementptr inbounds i8, i8* %123, i64 %125
  store i8 %122, i8* %126, align 1
  %127 = getelementptr inbounds [100 x i8], [100 x i8]* %9, i64 0, i64 0
  %128 = load i32, i32* %5, align 4
  %129 = sext i32 %128 to i64
  %130 = getelementptr inbounds i8, i8* %127, i64 %129
  %131 = getelementptr inbounds i8, i8* %130, i64 -1
  %132 = load i8, i8* %131, align 1
  %133 = sext i8 %132 to i32
  %134 = sub nsw i32 %133, 1
  %135 = trunc i32 %134 to i8
  %136 = getelementptr inbounds [100 x i8], [100 x i8]* %9, i64 0, i64 0
  %137 = load i32, i32* %5, align 4
  %138 = sext i32 %137 to i64
  %139 = getelementptr inbounds i8, i8* %136, i64 %138
  %140 = getelementptr inbounds i8, i8* %139, i64 -1
  store i8 %135, i8* %140, align 1
  br label %142

141:                                              ; preds = %105
  br label %149

142:                                              ; preds = %113
  br label %143

143:                                              ; preds = %142, %104
  br label %144

144:                                              ; preds = %143
  %145 = load i32, i32* %5, align 4
  %146 = add nsw i32 %145, -1
  store i32 %146, i32* %5, align 4
  %147 = load i32, i32* %6, align 4
  %148 = add nsw i32 %147, -1
  store i32 %148, i32* %6, align 4
  br label %30

149:                                              ; preds = %141, %30
  store i32 0, i32* %7, align 4
  br label %150

150:                                              ; preds = %182, %149
  %151 = load i32, i32* %7, align 4
  %152 = load i32, i32* %3, align 4
  %153 = icmp slt i32 %151, %152
  br i1 %153, label %154, label %185

154:                                              ; preds = %150
  %155 = getelementptr inbounds [100 x i8], [100 x i8]* %9, i64 0, i64 0
  %156 = load i32, i32* %7, align 4
  %157 = sext i32 %156 to i64
  %158 = getelementptr inbounds i8, i8* %155, i64 %157
  %159 = load i8, i8* %158, align 1
  %160 = sext i8 %159 to i32
  %161 = icmp ne i32 %160, 48
  br i1 %161, label %162, label %181

162:                                              ; preds = %154
  %163 = load i32, i32* %7, align 4
  store i32 %163, i32* %8, align 4
  br label %164

164:                                              ; preds = %177, %162
  %165 = load i32, i32* %8, align 4
  %166 = load i32, i32* %3, align 4
  %167 = icmp slt i32 %165, %166
  br i1 %167, label %168, label %180

168:                                              ; preds = %164
  %169 = getelementptr inbounds [100 x i8], [100 x i8]* %9, i64 0, i64 0
  %170 = load i32, i32* %8, align 4
  %171 = sext i32 %170 to i64
  %172 = getelementptr inbounds i8, i8* %169, i64 %171
  %173 = load i8, i8* %172, align 1
  %174 = sext i8 %173 to i32
  %175 = sub nsw i32 %174, 48
  %176 = call i32 (i8*, ...) @printf(i8* getelementptr inbounds ([3 x i8], [3 x i8]* @.str, i64 0, i64 0), i32 %175)
  br label %177

177:                                              ; preds = %168
  %178 = load i32, i32* %8, align 4
  %179 = add nsw i32 %178, 1
  store i32 %179, i32* %8, align 4
  br label %164

180:                                              ; preds = %164
  br label %185

181:                                              ; preds = %154
  br label %182

182:                                              ; preds = %181
  %183 = load i32, i32* %7, align 4
  %184 = add nsw i32 %183, 1
  store i32 %184, i32* %7, align 4
  br label %150

185:                                              ; preds = %180, %150
  %186 = call i32 (i8*, ...) @printf(i8* getelementptr inbounds ([2 x i8], [2 x i8]* @.str.2, i64 0, i64 0))
  br label %187

187:                                              ; preds = %185
  %188 = load i32, i32* %2, align 4
  %189 = add nsw i32 %188, 1
  store i32 %189, i32* %2, align 4
  br label %12

190:                                              ; preds = %12
  ret void
}

declare dso_local i32 @__isoc99_scanf(i8*, ...) #1

; Function Attrs: nounwind readonly
declare dso_local i64 @strlen(i8*) #2

declare dso_local i32 @printf(i8*, ...) #1


!llvm.module.flags = !{!0}
!llvm.ident = !{!1}

!0 = !{i32 1, !"wchar_size", i32 4}
!1 = !{!"clang version 10.0.0-4ubuntu1 "}
